; ModuleID = 'source-C-CXX/61/746.c'
source_filename = "source-C-CXX/61/746.c"
target datalayout = "e-m:e-p270:32:32-p271:32:32-p272:64:64-i64:64-f80:128-n8:16:32:64-S128"
target triple = "x86_64-pc-linux-gnu"

; Function Attrs: nounwind sspstrong uwtable
define dso_local i32 @main() local_unnamed_addr #0 {
  %1 = alloca [10000 x i8], align 16
  %2 = alloca [10000 x i8], align 16
  %3 = getelementptr inbounds [10000 x i8], [10000 x i8]* %1, i64 0, i64 0
  call void @llvm.lifetime.start.p0i8(i64 10000, i8* nonnull %3) #5
  %4 = getelementptr inbounds [10000 x i8], [10000 x i8]* %2, i64 0, i64 0
  call void @llvm.lifetime.start.p0i8(i64 10000, i8* nonnull %4) #5
  %5 = call i32 (i8*, ...) bitcast (i32 (...)* @gets to i32 (i8*, ...)*)(i8* nonnull %3) #5
  %6 = call i64 @strlen(i8* noundef nonnull %3) #6
  %7 = trunc i64 %6 to i32
  %8 = icmp sgt i32 %7, 0
  br i1 %8, label %9, label %55

9:                                                ; preds = %0
  %10 = and i64 %6, 4294967295
  %11 = and i64 %6, 1
  %12 = icmp eq i64 %10, 1
  br i1 %12, label %38, label %13

13:                                               ; preds = %9
  %14 = sub nsw i64 %10, %11
  br label %15

15:                                               ; preds = %66, %13
  %16 = phi i64 [ 0, %13 ], [ %68, %66 ]
  %17 = phi i32 [ 0, %13 ], [ %67, %66 ]
  %18 = phi i64 [ %14, %13 ], [ %69, %66 ]
  %19 = getelementptr inbounds [10000 x i8], [10000 x i8]* %1, i64 0, i64 %16
  %20 = load i8, i8* %19, align 2, !tbaa !5
  %21 = icmp eq i8 %20, 32
  br i1 %21, label %22, label %27

22:                                               ; preds = %15
  %23 = add nsw i64 %16, -1
  %24 = getelementptr inbounds [10000 x i8], [10000 x i8]* %1, i64 0, i64 %23
  %25 = load i8, i8* %24, align 1, !tbaa !5
  %26 = icmp eq i8 %25, 32
  br i1 %26, label %32, label %27

27:                                               ; preds = %22, %15
  %28 = phi i8 [ %20, %15 ], [ 32, %22 ]
  %29 = sext i32 %17 to i64
  %30 = getelementptr inbounds [10000 x i8], [10000 x i8]* %2, i64 0, i64 %29
  store i8 %28, i8* %30, align 1, !tbaa !5
  %31 = add nsw i32 %17, 1
  br label %32

32:                                               ; preds = %27, %22
  %33 = phi i32 [ %17, %22 ], [ %31, %27 ]
  %34 = or i64 %16, 1
  %35 = getelementptr inbounds [10000 x i8], [10000 x i8]* %1, i64 0, i64 %34
  %36 = load i8, i8* %35, align 1, !tbaa !5
  %37 = icmp eq i8 %36, 32
  br i1 %37, label %57, label %61

38:                                               ; preds = %66, %9
  %39 = phi i64 [ 0, %9 ], [ %68, %66 ]
  %40 = phi i32 [ 0, %9 ], [ %67, %66 ]
  %41 = icmp eq i64 %11, 0
  br i1 %41, label %55, label %42

42:                                               ; preds = %38
  %43 = getelementptr inbounds [10000 x i8], [10000 x i8]* %1, i64 0, i64 %39
  %44 = load i8, i8* %43, align 1, !tbaa !5
  %45 = icmp eq i8 %44, 32
  br i1 %45, label %46, label %51

46:                                               ; preds = %42
  %47 = add nsw i64 %39, -1
  %48 = getelementptr inbounds [10000 x i8], [10000 x i8]* %1, i64 0, i64 %47
  %49 = load i8, i8* %48, align 1, !tbaa !5
  %50 = icmp eq i8 %49, 32
  br i1 %50, label %55, label %51

51:                                               ; preds = %46, %42
  %52 = phi i8 [ %44, %42 ], [ 32, %46 ]
  %53 = sext i32 %40 to i64
  %54 = getelementptr inbounds [10000 x i8], [10000 x i8]* %2, i64 0, i64 %53
  store i8 %52, i8* %54, align 1, !tbaa !5
  br label %55

55:                                               ; preds = %38, %46, %51, %0
  %56 = call i32 @puts(i8* nonnull %4)
  call void @llvm.lifetime.end.p0i8(i64 10000, i8* nonnull %4) #5
  call void @llvm.lifetime.end.p0i8(i64 10000, i8* nonnull %3) #5
  ret i32 0

57:                                               ; preds = %32
  %58 = getelementptr inbounds [10000 x i8], [10000 x i8]* %1, i64 0, i64 %16
  %59 = load i8, i8* %58, align 2, !tbaa !5
  %60 = icmp eq i8 %59, 32
  br i1 %60, label %66, label %61

61:                                               ; preds = %57, %32
  %62 = phi i8 [ %36, %32 ], [ 32, %57 ]
  %63 = sext i32 %33 to i64
  %64 = getelementptr inbounds [10000 x i8], [10000 x i8]* %2, i64 0, i64 %63
  store i8 %62, i8* %64, align 1, !tbaa !5
  %65 = add nsw i32 %33, 1
  br label %66

66:                                               ; preds = %61, %57
  %67 = phi i32 [ %33, %57 ], [ %65, %61 ]
  %68 = add nuw nsw i64 %16, 2
  %69 = add i64 %18, -2
  %70 = icmp eq i64 %69, 0
  br i1 %70, label %38, label %15, !llvm.loop !8
}

; Function Attrs: argmemonly mustprogress nofree nosync nounwind willreturn
declare void @llvm.lifetime.start.p0i8(i64 immarg, i8* nocapture) #1

declare i32 @gets(...) local_unnamed_addr #2

; Function Attrs: argmemonly mustprogress nofree nounwind readonly willreturn
declare i64 @strlen(i8* nocapture) local_unnamed_addr #3

; Function Attrs: nofree nounwind
declare noundef i32 @puts(i8* nocapture noundef readonly) local_unnamed_addr #4

; Function Attrs: argmemonly mustprogress nofree nosync nounwind willreturn
declare void @llvm.lifetime.end.p0i8(i64 immarg, i8* nocapture) #1


!llvm.module.flags = !{!0, !1, !2, !3}
!llvm.ident = !{!4}

!0 = !{i32 1, !"wchar_size", i32 4}
!1 = !{i32 7, !"PIC Level", i32 2}
!2 = !{i32 7, !"PIE Level", i32 2}
!3 = !{i32 7, !"uwtable", i32 1}
!4 = !{!"clang version 13.0.0"}
!5 = !{!6, !6, i64 0}
!6 = !{!"omnipotent char", !7, i64 0}
!7 = !{!"Simple C/C++ TBAA"}
!8 = distinct !{!8, !9}
!9 = !{!"llvm.loop.mustprogress"}
